target datalayout = "e-m:e-p270:32:32-p271:32:32-p272:64:64-i64:64-i128:128-f80:128-n8:16:32:64-S128"
target triple = "x86_64-unknown-linux-gnu"

%struct.QemuMutex = type { %union.pthread_mutex_t, i8 }
%union.pthread_mutex_t = type { %struct.__pthread_mutex_s }
%struct.__pthread_mutex_s = type { i32, i32, i32, i32, i32, i16, i16, %struct.__pthread_internal_list }
%struct.__pthread_internal_list = type { ptr, ptr }
%struct.RAMList = type { %struct.QemuMutex, ptr, %struct.anon.0, [3 x ptr], i32, %struct.anon.1 }
%struct.anon.0 = type { ptr }
%struct.anon.1 = type { ptr }
%struct.RAMBlock = type { %struct.rcu_head, ptr, ptr, ptr, i64, i64, i64, ptr, i32, [256 x i8], %struct.anon.2, %struct.anon.3, i32, i64, i64, ptr, ptr, ptr, i8, i64 }
%struct.rcu_head = type { ptr, ptr }
%struct.anon.2 = type { ptr, ptr }
%struct.anon.3 = type { ptr }

@.str = private unnamed_addr constant [24 x i8] c"../qemu/migration/ram.c\00", align 1
@ram_list = external global %struct.RAMList, align 8
@__func__.ram_postcopy_migrated_memory_release = private unnamed_addr constant [37 x i8] c"ram_postcopy_migrated_memory_release\00", align 1

; Function Attrs: nounwind sspstrong uwtable
define dso_local zeroext i1 @migrate_ram_is_ignored(ptr noundef %block) #0 {
entry:
  %block.addr = alloca ptr, align 8
  store ptr %block, ptr %block.addr, align 8
  %0 = load ptr, ptr %block.addr, align 8
  %call = call zeroext i1 @qemu_ram_is_migratable(ptr noundef %0)
  br i1 %call, label %lor.rhs, label %lor.end

lor.rhs:                                          ; preds = %entry
  %call1 = call zeroext i1 @migrate_ignore_shared()
  br i1 %call1, label %land.lhs.true, label %land.end

land.lhs.true:                                    ; preds = %lor.rhs
  %1 = load ptr, ptr %block.addr, align 8
  %call2 = call zeroext i1 @qemu_ram_is_shared(ptr noundef %1)
  br i1 %call2, label %land.rhs, label %land.end

land.rhs:                                         ; preds = %land.lhs.true
  %2 = load ptr, ptr %block.addr, align 8
  %call3 = call zeroext i1 @qemu_ram_is_named_file(ptr noundef %2)
  br label %land.end

land.end:                                         ; preds = %land.rhs, %land.lhs.true, %lor.rhs
  %3 = phi i1 [ false, %land.lhs.true ], [ false, %lor.rhs ], [ %call3, %land.rhs ]
  br label %lor.end

lor.end:                                          ; preds = %land.end, %entry
  %4 = phi i1 [ true, %entry ], [ %3, %land.end ]
  ret i1 %4
}

; Function Attrs: nounwind sspstrong uwtable
define dso_local void @ram_postcopy_migrated_memory_release(ptr noundef %ms) #0 {
entry:
  %ms.addr = alloca ptr, align 8
  %block = alloca ptr, align 8
  %_val55 = alloca ptr, align 8
  %tmp = alloca ptr, align 8
  %bitmap = alloca ptr, align 8
  %range = alloca i64, align 8
  %run_start = alloca i64, align 8
  %run_end = alloca i64, align 8
  %_val56 = alloca ptr, align 8
  %tmp15 = alloca ptr, align 8
  store ptr %ms, ptr %ms.addr, align 8
  br label %while.cond

while.cond:                                       ; preds = %do.end, %entry
  br i1 false, label %while.body, label %while.end

while.body:                                       ; preds = %while.cond
  br label %do.body

do.body:                                          ; preds = %while.body
  call void @g_assertion_message_expr(ptr noundef null, ptr noundef @.str, i32 noundef 2447, ptr noundef @__func__.ram_postcopy_migrated_memory_release, ptr noundef null) #12
  unreachable

do.end:                                           ; No predecessors!
  br label %while.cond

while.end:                                        ; preds = %while.cond
  %0 = getelementptr inbounds %struct.RAMList, ptr @ram_list, i32 0, i32 2
  %1 = load atomic i64, ptr %0 monotonic, align 8
  store i64 %1, ptr %_val55, align 8
  call void asm sideeffect "", "~{memory},~{dirflag},~{fpsr},~{flags}"() #13, !srcloc !32
  %2 = load ptr, ptr %_val55, align 8
  store ptr %2, ptr %tmp, align 8
  %3 = load ptr, ptr %tmp, align 8
  store ptr %3, ptr %block, align 8
  br label %for.cond

for.cond:                                         ; preds = %while.end14, %while.end
  %4 = load ptr, ptr %block, align 8
  %tobool = icmp ne ptr %4, null
  br i1 %tobool, label %for.body, label %for.end

for.body:                                         ; preds = %for.cond
  %5 = load ptr, ptr %block, align 8
  %call = call zeroext i1 @migrate_ram_is_ignored(ptr noundef %5)
  br i1 %call, label %if.then, label %if.else

if.then:                                          ; preds = %for.body
  br label %if.end

if.else:                                          ; preds = %for.body
  %6 = load ptr, ptr %block, align 8
  %bmap = getelementptr inbounds %struct.RAMBlock, ptr %6, i32 0, i32 15
  %7 = load ptr, ptr %bmap, align 8
  store ptr %7, ptr %bitmap, align 8
  %8 = load ptr, ptr %block, align 8
  %used_length = getelementptr inbounds %struct.RAMBlock, ptr %8, i32 0, i32 5
  %9 = load i64, ptr %used_length, align 8
  %shr = lshr i64 %9, 12
  store i64 %shr, ptr %range, align 8
  %10 = load ptr, ptr %bitmap, align 8
  %11 = load i64, ptr %range, align 8
  %call1 = call i64 @find_next_zero_bit(ptr noundef %10, i64 noundef %11, i64 noundef 0)
  store i64 %call1, ptr %run_start, align 8
  br label %while.cond2

while.cond2:                                      ; preds = %while.body3, %if.else
  %12 = load i64, ptr %run_start, align 8
  %13 = load i64, ptr %range, align 8
  %cmp = icmp ult i64 %12, %13
  br i1 %cmp, label %while.body3, label %while.end9

while.body3:                                      ; preds = %while.cond2
  %14 = load ptr, ptr %bitmap, align 8
  %15 = load i64, ptr %range, align 8
  %16 = load i64, ptr %run_start, align 8
  %add = add i64 %16, 1
  %call4 = call i64 @find_next_bit(ptr noundef %14, i64 noundef %15, i64 noundef %add)
  store i64 %call4, ptr %run_end, align 8
  %17 = load ptr, ptr %block, align 8
  %idstr = getelementptr inbounds %struct.RAMBlock, ptr %17, i32 0, i32 9
  %arraydecay = getelementptr inbounds [256 x i8], ptr %idstr, i64 0, i64 0
  %18 = load i64, ptr %run_start, align 8
  %shl = shl i64 %18, 12
  %19 = load i64, ptr %run_end, align 8
  %20 = load i64, ptr %run_start, align 8
  %sub = sub i64 %19, %20
  %shl5 = shl i64 %sub, 12
  %call6 = call i32 @ram_discard_range(ptr noundef %arraydecay, i64 noundef %shl, i64 noundef %shl5)
  %21 = load ptr, ptr %bitmap, align 8
  %22 = load i64, ptr %range, align 8
  %23 = load i64, ptr %run_end, align 8
  %add7 = add i64 %23, 1
  %call8 = call i64 @find_next_zero_bit(ptr noundef %21, i64 noundef %22, i64 noundef %add7)
  store i64 %call8, ptr %run_start, align 8
  br label %while.cond2, !llvm.loop !33

while.end9:                                       ; preds = %while.cond2
  br label %if.end

if.end:                                           ; preds = %while.end9, %if.then
  br label %for.inc

for.inc:                                          ; preds = %if.end
  br label %while.cond10

while.cond10:                                     ; preds = %do.end13, %for.inc
  br i1 false, label %while.body11, label %while.end14

while.body11:                                     ; preds = %while.cond10
  br label %do.body12

do.body12:                                        ; preds = %while.body11
  call void @g_assertion_message_expr(ptr noundef null, ptr noundef @.str, i32 noundef 2447, ptr noundef @__func__.ram_postcopy_migrated_memory_release, ptr noundef null) #12
  unreachable

do.end13:                                         ; No predecessors!
  br label %while.cond10

while.end14:                                      ; preds = %while.cond10
  %24 = load ptr, ptr %block, align 8
  %next = getelementptr inbounds %struct.RAMBlock, ptr %24, i32 0, i32 10
  %le_next = getelementptr inbounds %struct.anon.2, ptr %next, i32 0, i32 0
  %25 = load atomic i64, ptr %le_next monotonic, align 8
  store i64 %25, ptr %_val56, align 8
  call void asm sideeffect "", "~{memory},~{dirflag},~{fpsr},~{flags}"() #13, !srcloc !34
  %26 = load ptr, ptr %_val56, align 8
  store ptr %26, ptr %tmp15, align 8
  %27 = load ptr, ptr %tmp15, align 8
  store ptr %27, ptr %block, align 8
  br label %for.cond, !llvm.loop !35

for.end:                                          ; preds = %for.cond
  ret void
}