; Function Attrs: nounwind sspstrong uwtable
define dso_local void @ram_postcopy_migrated_memory_release(ptr noundef readnone captures(none) %ms) local_unnamed_addr #0 {
entry:
  %0 = load atomic i64, ptr getelementptr inbounds nuw (i8, ptr @ram_list, i64 56) monotonic, align 8
  tail call void asm sideeffect "", "~{memory},~{dirflag},~{fpsr},~{flags}"() #18, !srcloc !36
  %tobool.not19 = icmp eq i64 %0, 0
  br i1 %tobool.not19, label %for.end, label %for.body

for.body:                                         ; preds = %entry, %while.end14
  %block.020.in = phi i64 [ %3, %while.end14 ], [ %0, %entry ]
  %block.020 = inttoptr i64 %block.020.in to ptr
  %call.i = tail call zeroext i1 @qemu_ram_is_migratable(ptr noundef nonnull %block.020) #18
  br i1 %call.i, label %lor.rhs.i, label %while.end14

lor.rhs.i:                                        ; preds = %for.body
  %call1.i = tail call zeroext i1 @migrate_ignore_shared() #18
  br i1 %call1.i, label %land.lhs.true.i, label %if.else

land.lhs.true.i:                                  ; preds = %lor.rhs.i
  %call2.i = tail call zeroext i1 @qemu_ram_is_shared(ptr noundef nonnull %block.020) #18
  br i1 %call2.i, label %migrate_ram_is_ignored.exit, label %if.else

migrate_ram_is_ignored.exit:                      ; preds = %land.lhs.true.i
  %call3.i = tail call zeroext i1 @qemu_ram_is_named_file(ptr noundef nonnull %block.020) #18
  br i1 %call3.i, label %while.end14, label %if.else

if.else:                                          ; preds = %lor.rhs.i, %land.lhs.true.i, %migrate_ram_is_ignored.exit
  %bmap = getelementptr inbounds nuw i8, ptr %block.020, i64 384
  %1 = load ptr, ptr %bmap, align 8
  %used_length = getelementptr inbounds nuw i8, ptr %block.020, i64 48
  %2 = load i64, ptr %used_length, align 8
  %shr = lshr i64 %2, 12
  %call1 = tail call i64 @find_next_zero_bit(ptr noundef %1, i64 noundef %shr, i64 noundef 0) #18
  %cmp16 = icmp ult i64 %call1, %shr
  br i1 %cmp16, label %while.body3.lr.ph, label %while.end14

while.body3.lr.ph:                                ; preds = %if.else
  %idstr = getelementptr inbounds nuw i8, ptr %block.020, i64 76
  br label %while.body3

while.body3:                                      ; preds = %while.body3.lr.ph, %while.body3
  %run_start.017 = phi i64 [ %call1, %while.body3.lr.ph ], [ %call8, %while.body3 ]
  %add = add nuw nsw i64 %run_start.017, 1
  %call4 = tail call i64 @find_next_bit(ptr noundef %1, i64 noundef %shr, i64 noundef %add) #18
  %shl = shl nuw i64 %run_start.017, 12
  %sub = sub i64 %call4, %run_start.017
  %shl5 = shl i64 %sub, 12
  %call6 = tail call i32 @ram_discard_range(ptr noundef nonnull %idstr, i64 noundef %shl, i64 noundef %shl5)
  %add7 = add i64 %call4, 1
  %call8 = tail call i64 @find_next_zero_bit(ptr noundef %1, i64 noundef %shr, i64 noundef %add7) #18
  %cmp = icmp ult i64 %call8, %shr
  br i1 %cmp, label %while.body3, label %while.end14, !llvm.loop !37

while.end14:                                      ; preds = %while.body3, %if.else, %for.body, %migrate_ram_is_ignored.exit
  %next = getelementptr inbounds nuw i8, ptr %block.020, i64 336
  %3 = load atomic i64, ptr %next monotonic, align 8
  tail call void asm sideeffect "", "~{memory},~{dirflag},~{fpsr},~{flags}"() #18, !srcloc !38
  %tobool.not = icmp eq i64 %3, 0
  br i1 %tobool.not, label %for.end, label %for.body, !llvm.loop !39

for.end:                                          ; preds = %while.end14, %entry
  ret void
}